target datalayout = "e-m:e-p270:32:32-p271:32:32-p272:64:64-i64:64-i128:128-f80:128-n8:16:32:64-S128"
target triple = "x86_64-pc-linux-gnu"

; Function Attrs: inlinehint nounwind uwtable
define internal void @Abc_TtSetBit(ptr noundef %0, i32 noundef %1) #3 {
  %3 = alloca ptr, align 8
  %4 = alloca i32, align 4
  store ptr %0, ptr %3, align 8, !tbaa !3
  store i32 %1, ptr %4, align 4, !tbaa !8
  %5 = load i32, ptr %4, align 4, !tbaa !8
  %6 = and i32 %5, 63
  %7 = zext i32 %6 to i64
  %8 = shl i64 1, %7
  %9 = load ptr, ptr %3, align 8, !tbaa !3
  %10 = load i32, ptr %4, align 4, !tbaa !8
  %11 = ashr i32 %10, 6
  %12 = sext i32 %11 to i64
  %13 = getelementptr inbounds i64, ptr %9, i64 %12
  %14 = load i64, ptr %13, align 8, !tbaa !13
  %15 = or i64 %14, %8
  store i64 %15, ptr %13, align 8, !tbaa !13
  ret void
}

; Function Attrs: inlinehint nounwind uwtable
define internal i32 @Abc_TtGetQua(ptr noundef %0, i32 noundef %1) #3 {
  %3 = alloca ptr, align 8
  %4 = alloca i32, align 4
  store ptr %0, ptr %3, align 8, !tbaa !3
  store i32 %1, ptr %4, align 4, !tbaa !8
  %5 = load ptr, ptr %3, align 8, !tbaa !3
  %6 = load i32, ptr %4, align 4, !tbaa !8
  %7 = ashr i32 %6, 5
  %8 = sext i32 %7 to i64
  %9 = getelementptr inbounds i64, ptr %5, i64 %8
  %10 = load i64, ptr %9, align 8, !tbaa !13
  %11 = load i32, ptr %4, align 4, !tbaa !8
  %12 = shl i32 %11, 1
  %13 = and i32 %12, 63
  %14 = zext i32 %13 to i64
  %15 = lshr i64 %10, %14
  %16 = trunc i64 %15 to i32
  %17 = and i32 %16, 3
  ret i32 %17
}

; Function Attrs: inlinehint nounwind uwtable
define internal i32 @Abc_TtWordNum(i32 noundef %0) #3 {
  %2 = alloca i32, align 4
  store i32 %0, ptr %2, align 4, !tbaa !8
  %3 = load i32, ptr %2, align 4, !tbaa !8
  %4 = icmp sle i32 %3, 6
  br i1 %4, label %5, label %6

5:                                                ; preds = %1
  br label %10

6:                                                ; preds = %1
  %7 = load i32, ptr %2, align 4, !tbaa !8
  %8 = sub nsw i32 %7, 6
  %9 = shl i32 1, %8
  br label %10

10:                                               ; preds = %6, %5
  %11 = phi i32 [ 1, %5 ], [ %9, %6 ]
  ret i32 %11
}

; Function Attrs: nounwind uwtable
define i32 @Abc_TtGetCM1Pat(ptr noundef %0, i32 noundef %1, ptr noundef %2) #0 {
  %4 = alloca ptr, align 8
  %5 = alloca i32, align 4
  %6 = alloca ptr, align 8
  %7 = alloca i32, align 4
  %8 = alloca [4 x i32], align 16
  %9 = alloca [4 x i32], align 16
  %10 = alloca i32, align 4
  %11 = alloca i32, align 4
  %12 = alloca i32, align 4
  %13 = alloca i32, align 4
  store ptr %0, ptr %4, align 8, !tbaa !3
  store i32 %1, ptr %5, align 4, !tbaa !8
  store ptr %2, ptr %6, align 8, !tbaa !3
  call void @llvm.lifetime.start.p0(i64 4, ptr %7) #12
  store i32 0, ptr %7, align 4, !tbaa !8
  call void @llvm.lifetime.start.p0(i64 16, ptr %8) #12
  call void @llvm.lifetime.start.p0(i64 16, ptr %9) #12
  call void @llvm.lifetime.start.p0(i64 4, ptr %10) #12
  call void @llvm.lifetime.start.p0(i64 4, ptr %11) #12
  %14 = load i32, ptr %5, align 4, !tbaa !8
  %15 = sub nsw i32 %14, 1
  %16 = shl i32 1, %15
  store i32 %16, ptr %11, align 4, !tbaa !8
  call void @llvm.lifetime.start.p0(i64 4, ptr %12) #12
  %17 = load i32, ptr %5, align 4, !tbaa !8
  %18 = sub nsw i32 %17, 1
  %19 = call i32 @Abc_TtWordNum(i32 noundef %18)
  store i32 %19, ptr %12, align 4, !tbaa !8
  %20 = getelementptr inbounds [4 x i32], ptr %9, i64 0, i64 0
  call void @llvm.memset.p0.i64(ptr align 16 %20, i8 -1, i64 16, i1 false)
  store i32 0, ptr %10, align 4, !tbaa !8
  br label %21

21:                                               ; preds = %59, %3
  %22 = load i32, ptr %10, align 4, !tbaa !8
  %23 = load i32, ptr %11, align 4, !tbaa !8
  %24 = icmp slt i32 %22, %23
  br i1 %24, label %25, label %62

25:                                               ; preds = %21
  call void @llvm.lifetime.start.p0(i64 4, ptr %13) #12
  %26 = load ptr, ptr %4, align 8, !tbaa !3
  %27 = load i32, ptr %10, align 4, !tbaa !8
  %28 = call i32 @Abc_TtGetQua(ptr noundef %26, i32 noundef %27)
  store i32 %28, ptr %13, align 4, !tbaa !8
  %29 = load i32, ptr %13, align 4, !tbaa !8
  %30 = sext i32 %29 to i64
  %31 = getelementptr inbounds [4 x i32], ptr %9, i64 0, i64 %30
  %32 = load i32, ptr %31, align 4, !tbaa !8
  %33 = icmp eq i32 %32, -1
  br i1 %33, label %34, label %44

34:                                               ; preds = %25
  %35 = load i32, ptr %7, align 4, !tbaa !8
  %36 = load i32, ptr %13, align 4, !tbaa !8
  %37 = sext i32 %36 to i64
  %38 = getelementptr inbounds [4 x i32], ptr %9, i64 0, i64 %37
  store i32 %35, ptr %38, align 4, !tbaa !8
  %39 = load i32, ptr %13, align 4, !tbaa !8
  %40 = load i32, ptr %7, align 4, !tbaa !8
  %41 = add nsw i32 %40, 1
  store i32 %41, ptr %7, align 4, !tbaa !8
  %42 = sext i32 %40 to i64
  %43 = getelementptr inbounds [4 x i32], ptr %8, i64 0, i64 %42
  store i32 %39, ptr %43, align 4, !tbaa !8
  br label %44

44:                                               ; preds = %34, %25
  %45 = load ptr, ptr %6, align 8, !tbaa !3
  %46 = icmp ne ptr %45, null
  br i1 %46, label %47, label %58

47:                                               ; preds = %44
  %48 = load ptr, ptr %6, align 8, !tbaa !3
  %49 = load i32, ptr %12, align 4, !tbaa !8
  %50 = load i32, ptr %13, align 4, !tbaa !8
  %51 = sext i32 %50 to i64
  %52 = getelementptr inbounds [4 x i32], ptr %9, i64 0, i64 %51
  %53 = load i32, ptr %52, align 4, !tbaa !8
  %54 = mul nsw i32 %49, %53
  %55 = sext i32 %54 to i64
  %56 = getelementptr inbounds i64, ptr %48, i64 %55
  %57 = load i32, ptr %10, align 4, !tbaa !8
  call void @Abc_TtSetBit(ptr noundef %56, i32 noundef %57)
  br label %58

58:                                               ; preds = %47, %44
  call void @llvm.lifetime.end.p0(i64 4, ptr %13) #12
  br label %59

59:                                               ; preds = %58
  %60 = load i32, ptr %10, align 4, !tbaa !8
  %61 = add nsw i32 %60, 1
  store i32 %61, ptr %10, align 4, !tbaa !8
  br label %21, !llvm.loop !50

62:                                               ; preds = %21
  %63 = load i32, ptr %7, align 4, !tbaa !8
  call void @llvm.lifetime.end.p0(i64 4, ptr %12) #12
  call void @llvm.lifetime.end.p0(i64 4, ptr %11) #12
  call void @llvm.lifetime.end.p0(i64 4, ptr %10) #12
  call void @llvm.lifetime.end.p0(i64 16, ptr %9) #12
  call void @llvm.lifetime.end.p0(i64 16, ptr %8) #12
  call void @llvm.lifetime.end.p0(i64 4, ptr %7) #12
  ret i32 %63
}